target datalayout = "e-m:e-p270:32:32-p271:32:32-p272:64:64-i64:64-i128:128-f80:128-n8:16:32:64-S128"
target triple = "x86_64-pc-linux-gnu"

; Function Attrs: mustprogress noinline uwtable
define internal noundef ptr @_ZL15fallbackNewImplILb0EEPvm(i64 noundef %0) #17 {
  %2 = alloca ptr, align 8
  %3 = alloca i64, align 8
  %4 = alloca ptr, align 8
  %5 = alloca i32, align 4
  store i64 %0, ptr %3, align 8, !tbaa !4
  call void @llvm.lifetime.start.p0(i64 8, ptr %4) #26
  %6 = load i64, ptr %3, align 8, !tbaa !4
  %7 = call ptr @je_malloc_default(i64 noundef %6)
  store ptr %7, ptr %4, align 8, !tbaa !8
  %8 = load ptr, ptr %4, align 8, !tbaa !8
  %9 = icmp ne ptr %8, null
  %10 = xor i1 %9, true
  %11 = xor i1 %10, true
  %12 = zext i1 %11 to i64
  %13 = call i64 @llvm.expect.i64(i64 %12, i64 1)
  %14 = icmp ne i64 %13, 0
  br i1 %14, label %15, label %17

15:                                               ; preds = %1
  %16 = load ptr, ptr %4, align 8, !tbaa !8
  store ptr %16, ptr %2, align 8
  store i32 1, ptr %5, align 4
  br label %20

17:                                               ; preds = %1
  %18 = load i64, ptr %3, align 8, !tbaa !4
  %19 = call noundef ptr @_ZL9handleOOMmb(i64 noundef %18, i1 noundef zeroext false)
  store ptr %19, ptr %2, align 8
  store i32 1, ptr %5, align 4
  br label %20

20:                                               ; preds = %17, %15
  call void @llvm.lifetime.end.p0(i64 8, ptr %4) #26
  %21 = load ptr, ptr %2, align 8
  ret ptr %21
}