; Function Attrs: mustprogress noinline uwtable
define internal fastcc noundef ptr @_ZL15fallbackNewImplILb0EEPvm(i64 noundef %0) unnamed_addr #8 {
  %2 = tail call ptr @je_malloc_default(i64 noundef %0)
  %.not = icmp eq ptr %2, null
  br i1 %.not, label %3, label %5, !prof !4

3:                                                ; preds = %1
  %4 = tail call fastcc noundef ptr @_ZL9handleOOMmb(i64 noundef %0, i1 noundef zeroext false)
  br label %5

5:                                                ; preds = %1, %3
  %.0 = phi ptr [ %4, %3 ], [ %2, %1 ]
  ret ptr %.0
}